target datalayout = "e-m:e-p270:32:32-p271:32:32-p272:64:64-i64:64-i128:128-f80:128-n8:16:32:64-S128"
target triple = "x86_64-pc-linux-gnu"

%class.OopHandle = type { ptr }
%class.JavaThread = type { %class.Thread, i8, %class.OopHandle, %class.OopHandle, %class.OopHandle, %class.OopHandle, %class.JavaFrameAnchor, ptr, %struct.JNIEnv_, ptr, ptr, ptr, ptr, ptr, ptr, ptr, ptr, %class.MemRegion, ptr, i8, ptr, ptr, ptr, i32, i32, %"struct.SafepointMechanism::ThreadData", ptr, ptr, i32, i32, i8, i8, i8, i8, i8, i8, i8, i32, i8, i32, i8, i8, i64, %union.anon, ptr, ptr, i64, i64, ptr, ptr, %class.StackOverflow, ptr, ptr, ptr, i32, i32, ptr, i32, i32, i32, ptr, ptr, i32, i64, i64, %class.StackWatermarks, %class.HandshakeState, ptr, i32, ptr, i32, i32, ptr, %class.Parker, ptr, ptr, %class.LockStack }
%class.Thread = type { %class.ThreadShadow.base, i64, [43 x i64], ptr, ptr, i32, ptr, i64, i64, %class.ThreadLocalAllocBuffer, i64, %class.ThreadHeapSampler, %class.ThreadStatisticalInfo, %class.JfrThreadLocal, ptr, ptr, ptr, ptr, ptr, ptr, i64, i32, i32, ptr, i32, i32, i32, i32, i8, ptr }
%class.ThreadShadow.base = type <{ ptr, ptr, ptr, i32 }>
%class.ThreadLocalAllocBuffer = type <{ ptr, ptr, ptr, ptr, ptr, i64, i64, i64, i64, i32, i32, i32, i32, i64, %class.AdaptiveWeightedAverage, [4 x i8] }>
%class.AdaptiveWeightedAverage = type { float, i32, i32, i8, float }
%class.ThreadHeapSampler = type { i64 }
%class.ThreadStatisticalInfo = type { i64, i64 }
%class.JfrThreadLocal = type <{ ptr, ptr, ptr, ptr, ptr, ptr, ptr, ptr, ptr, ptr, %class.RefCountHandle, i64, i64, i64, i64, i64, i64, i64, i64, i64, i64, i64, i32, i32, i32, i16, i8, i8, i8, i8, i8, [5 x i8] }>
%class.RefCountHandle = type { ptr }
%class.JavaFrameAnchor = type { ptr, ptr, ptr }
%struct.JNIEnv_ = type { ptr }
%class.MemRegion = type { ptr, i64 }
%"struct.SafepointMechanism::ThreadData" = type { i64, i64 }
%union.anon = type { ptr }
%class.StackOverflow = type { i32, ptr, ptr, ptr, ptr, ptr, ptr }
%class.StackWatermarks = type { ptr }
%class.HandshakeState = type <{ ptr, %class.FilterQueue, %class.Monitor, ptr, i8, i8, i8, [5 x i8] }>
%class.FilterQueue = type { ptr }
%class.Monitor = type { %class.Mutex }
%class.Mutex = type { ptr, %class.PlatformMonitor, ptr }
%class.PlatformMonitor = type { %class.PlatformMutex, %union.pthread_cond_t }
%class.PlatformMutex = type { %union.pthread_mutex_t }
%union.pthread_mutex_t = type { %struct.__pthread_mutex_s }
%struct.__pthread_mutex_s = type { i32, i32, i32, i32, i32, i16, i16, %struct.__pthread_internal_list }
%struct.__pthread_internal_list = type { ptr, ptr }
%union.pthread_cond_t = type { %struct.__pthread_cond_s }
%struct.__pthread_cond_s = type { %union.__atomic_wide_counter, %union.__atomic_wide_counter, [2 x i32], [2 x i32], i32, i32, [2 x i32] }
%union.__atomic_wide_counter = type { i64 }
%class.Parker = type { %class.PlatformParker }
%class.PlatformParker = type { i32, i32, [1 x %union.pthread_mutex_t], [2 x %union.pthread_cond_t] }
%class.LockStack = type { i32, i64, [8 x ptr] }
%class.ThreadsListHandle = type { %class.SafeThreadsListPtr, %class.elapsedTimer }
%class.SafeThreadsListPtr = type <{ ptr, ptr, ptr, i8, i8, [6 x i8] }>
%class.elapsedTimer = type <{ i64, i64, i8, [7 x i8] }>
%"class.ThreadsList::Iterator" = type { ptr }
%class.ThreadsList = type { i32, i32, ptr, ptr, i64 }

@_ZN10JavaThread26_jvmci_old_thread_countersE = hidden global ptr null, align 8
@_ZN6Thread12_thr_currentE = external thread_local global ptr, align 8
@PrefetchScanIntervalInBytes = external global i64, align 8
@JVMCICountersExcludeCompiler = external global i8, align 1

; Function Attrs: mustprogress nounwind uwtable
define linkonce_odr hidden noundef i32 @_ZN11ThreadsList8Iterator11check_indexEPS_j(ptr noundef %0, i32 noundef %1) #1 comdat align 2 {
  %3 = alloca ptr, align 8
  %4 = alloca i32, align 4
  store ptr %0, ptr %3, align 8
  store i32 %1, ptr %4, align 4
  %5 = load i32, ptr %4, align 4
  ret i32 %5
}

; Function Attrs: mustprogress nounwind uwtable
define linkonce_odr hidden noundef ptr @_ZNK11ThreadsList7threadsEv(ptr noundef nonnull align 8 dereferenceable(32) %0) #1 comdat align 2 {
  %2 = alloca ptr, align 8
  store ptr %0, ptr %2, align 8
  %3 = load ptr, ptr %2, align 8
  %4 = getelementptr inbounds %class.ThreadsList, ptr %3, i32 0, i32 3
  %5 = load ptr, ptr %4, align 8
  ret ptr %5
}

; Function Attrs: mustprogress nounwind uwtable
define linkonce_odr hidden void @_ZNK11ThreadsList8Iterator16assert_same_listES0_(ptr noundef nonnull align 8 dereferenceable(8) %0, ptr %1) #1 comdat align 2 {
  %3 = alloca %"class.ThreadsList::Iterator", align 8
  %4 = alloca ptr, align 8
  %5 = getelementptr inbounds %"class.ThreadsList::Iterator", ptr %3, i32 0, i32 0
  store ptr %1, ptr %5, align 8
  store ptr %0, ptr %4, align 8
  ret void
}

; Function Attrs: mustprogress nounwind uwtable
define linkonce_odr hidden noundef i32 @_ZNK11ThreadsList6lengthEv(ptr noundef nonnull align 8 dereferenceable(32) %0) #1 comdat align 2 {
  %2 = alloca ptr, align 8
  store ptr %0, ptr %2, align 8
  %3 = load ptr, ptr %2, align 8
  %4 = getelementptr inbounds %class.ThreadsList, ptr %3, i32 0, i32 1
  %5 = load i32, ptr %4, align 4
  ret i32 %5
}

; Function Attrs: mustprogress nounwind uwtable
define linkonce_odr hidden void @_ZN11ThreadsList8IteratorC2EPS_j(ptr noundef nonnull align 8 dereferenceable(8) %0, ptr noundef %1, i32 noundef %2) unnamed_addr #1 comdat align 2 {
  %4 = alloca ptr, align 8
  %5 = alloca ptr, align 8
  %6 = alloca i32, align 4
  store ptr %0, ptr %4, align 8
  store ptr %1, ptr %5, align 8
  store i32 %2, ptr %6, align 4
  %7 = load ptr, ptr %4, align 8
  %8 = getelementptr inbounds %"class.ThreadsList::Iterator", ptr %7, i32 0, i32 0
  %9 = load ptr, ptr %5, align 8
  %10 = call noundef ptr @_ZNK11ThreadsList7threadsEv(ptr noundef nonnull align 8 dereferenceable(32) %9)
  %11 = load ptr, ptr %5, align 8
  %12 = load i32, ptr %6, align 4
  %13 = call noundef i32 @_ZN11ThreadsList8Iterator11check_indexEPS_j(ptr noundef %11, i32 noundef %12)
  %14 = zext i32 %13 to i64
  %15 = getelementptr inbounds ptr, ptr %10, i64 %14
  store ptr %15, ptr %8, align 8
  ret void
}

; Function Attrs: mustprogress nounwind uwtable
define linkonce_odr hidden noundef ptr @_ZNK18SafeThreadsListPtr4listEv(ptr noundef nonnull align 8 dereferenceable(26) %0) #1 comdat align 2 {
  %2 = alloca ptr, align 8
  store ptr %0, ptr %2, align 8
  %3 = load ptr, ptr %2, align 8
  %4 = getelementptr inbounds %class.SafeThreadsListPtr, ptr %3, i32 0, i32 2
  %5 = load ptr, ptr %4, align 8
  ret ptr %5
}

; Function Attrs: mustprogress nounwind uwtable
define linkonce_odr hidden void @_ZN8Prefetch4readEPKvl(ptr noundef %0, i64 noundef %1) #1 comdat align 2 {
  %3 = alloca ptr, align 8
  %4 = alloca i64, align 8
  store ptr %0, ptr %3, align 8
  store i64 %1, ptr %4, align 8
  %5 = load ptr, ptr %3, align 8
  %6 = load i64, ptr %4, align 8
  call void asm sideeffect "prefetcht0 ($0,$1,1)", "r,r,~{dirflag},~{fpsr},~{flags}"(ptr %5, i64 %6) #10, !srcloc !39
  ret void
}

; Function Attrs: mustprogress nounwind uwtable
define linkonce_odr hidden void @_ZNK11ThreadsList8Iterator22assert_dereferenceableEv(ptr noundef nonnull align 8 dereferenceable(8) %0) #1 comdat align 2 {
  %2 = alloca ptr, align 8
  store ptr %0, ptr %2, align 8
  ret void
}

; Function Attrs: mustprogress nounwind uwtable
define linkonce_odr hidden void @_ZNK11ThreadsList8Iterator19assert_not_singularEv(ptr noundef nonnull align 8 dereferenceable(8) %0) #1 comdat align 2 {
  %2 = alloca ptr, align 8
  store ptr %0, ptr %2, align 8
  ret void
}

; Function Attrs: mustprogress nounwind uwtable
define linkonce_odr hidden noundef zeroext i1 @_ZNK11ThreadsList8IteratoreqES0_(ptr noundef nonnull align 8 dereferenceable(8) %0, ptr %1) #1 comdat align 2 {
  %3 = alloca %"class.ThreadsList::Iterator", align 8
  %4 = alloca ptr, align 8
  %5 = alloca %"class.ThreadsList::Iterator", align 8
  %6 = getelementptr inbounds %"class.ThreadsList::Iterator", ptr %3, i32 0, i32 0
  store ptr %1, ptr %6, align 8
  store ptr %0, ptr %4, align 8
  %7 = load ptr, ptr %4, align 8
  call void @_ZNK11ThreadsList8Iterator19assert_not_singularEv(ptr noundef nonnull align 8 dereferenceable(8) %7)
  call void @llvm.memcpy.p0.p0.i64(ptr align 8 %5, ptr align 8 %3, i64 8, i1 false)
  %8 = getelementptr inbounds %"class.ThreadsList::Iterator", ptr %5, i32 0, i32 0
  %9 = load ptr, ptr %8, align 8
  call void @_ZNK11ThreadsList8Iterator16assert_same_listES0_(ptr noundef nonnull align 8 dereferenceable(8) %7, ptr %9)
  %10 = getelementptr inbounds %"class.ThreadsList::Iterator", ptr %7, i32 0, i32 0
  %11 = load ptr, ptr %10, align 8
  %12 = getelementptr inbounds %"class.ThreadsList::Iterator", ptr %3, i32 0, i32 0
  %13 = load ptr, ptr %12, align 8
  %14 = icmp eq ptr %11, %13
  ret i1 %14
}

; Function Attrs: mustprogress nounwind uwtable
define linkonce_odr hidden ptr @_ZN11ThreadsList3endEv(ptr noundef nonnull align 8 dereferenceable(32) %0) #1 comdat align 2 {
  %2 = alloca %"class.ThreadsList::Iterator", align 8
  %3 = alloca ptr, align 8
  store ptr %0, ptr %3, align 8
  %4 = load ptr, ptr %3, align 8
  %5 = call noundef i32 @_ZNK11ThreadsList6lengthEv(ptr noundef nonnull align 8 dereferenceable(32) %4)
  call void @_ZN11ThreadsList8IteratorC2EPS_j(ptr noundef nonnull align 8 dereferenceable(8) %2, ptr noundef %4, i32 noundef %5)
  %6 = getelementptr inbounds %"class.ThreadsList::Iterator", ptr %2, i32 0, i32 0
  %7 = load ptr, ptr %6, align 8
  ret ptr %7
}

; Function Attrs: mustprogress nounwind uwtable
define linkonce_odr hidden ptr @_ZN11ThreadsList5beginEv(ptr noundef nonnull align 8 dereferenceable(32) %0) #1 comdat align 2 {
  %2 = alloca %"class.ThreadsList::Iterator", align 8
  %3 = alloca ptr, align 8
  store ptr %0, ptr %3, align 8
  %4 = load ptr, ptr %3, align 8
  call void @_ZN11ThreadsList8IteratorC2EPS_j(ptr noundef nonnull align 8 dereferenceable(8) %2, ptr noundef %4, i32 noundef 0)
  %5 = getelementptr inbounds %"class.ThreadsList::Iterator", ptr %2, i32 0, i32 0
  %6 = load ptr, ptr %5, align 8
  ret ptr %6
}

; Function Attrs: mustprogress nounwind uwtable
define linkonce_odr hidden noundef ptr @_ZNK17ThreadsListHandle4listEv(ptr noundef nonnull align 8 dereferenceable(56) %0) #1 comdat align 2 {
  %2 = alloca ptr, align 8
  store ptr %0, ptr %2, align 8
  %3 = load ptr, ptr %2, align 8
  %4 = getelementptr inbounds %class.ThreadsListHandle, ptr %3, i32 0, i32 0
  %5 = call noundef ptr @_ZNK18SafeThreadsListPtr4listEv(ptr noundef nonnull align 8 dereferenceable(26) %4)
  ret ptr %5
}

; Function Attrs: mustprogress nounwind uwtable
define linkonce_odr hidden noundef ptr @_ZN6Thread15current_or_nullEv() #1 comdat align 2 {
  %1 = call align 8 ptr @llvm.threadlocal.address.p0(ptr align 8 @_ZN6Thread12_thr_currentE)
  %2 = load ptr, ptr %1, align 8
  ret ptr %2
}

; Function Attrs: mustprogress nounwind uwtable
define linkonce_odr hidden noundef nonnull align 8 dereferenceable(8) ptr @_ZN11ThreadsList8IteratorppEv(ptr noundef nonnull align 8 dereferenceable(8) %0) #1 comdat align 2 {
  %2 = alloca ptr, align 8
  store ptr %0, ptr %2, align 8
  %3 = load ptr, ptr %2, align 8
  call void @_ZNK11ThreadsList8Iterator19assert_not_singularEv(ptr noundef nonnull align 8 dereferenceable(8) %3)
  call void @_ZNK11ThreadsList8Iterator22assert_dereferenceableEv(ptr noundef nonnull align 8 dereferenceable(8) %3)
  %4 = getelementptr inbounds %"class.ThreadsList::Iterator", ptr %3, i32 0, i32 0
  %5 = load ptr, ptr %4, align 8
  %6 = getelementptr inbounds ptr, ptr %5, i32 1
  store ptr %6, ptr %4, align 8
  ret ptr %3
}

; Function Attrs: mustprogress nounwind uwtable
define internal noundef zeroext i1 @_ZL22jvmci_counters_includeP10JavaThread(ptr noundef %0) #1 {
  %2 = alloca ptr, align 8
  store ptr %0, ptr %2, align 8
  %3 = load i8, ptr @JVMCICountersExcludeCompiler, align 1
  %4 = trunc i8 %3 to i1
  br i1 %4, label %5, label %12

5:                                                ; preds = %1
  %6 = load ptr, ptr %2, align 8
  %7 = load ptr, ptr %6, align 8
  %8 = getelementptr inbounds ptr, ptr %7, i64 8
  %9 = load ptr, ptr %8, align 8
  %10 = call noundef zeroext i1 %9(ptr noundef nonnull align 8 dereferenceable(888) %6)
  %11 = xor i1 %10, true
  br label %12

12:                                               ; preds = %5, %1
  %13 = phi i1 [ true, %1 ], [ %11, %5 ]
  ret i1 %13
}

; Function Attrs: mustprogress nounwind uwtable
define linkonce_odr hidden noundef ptr @_ZNK11ThreadsList8IteratordeEv(ptr noundef nonnull align 8 dereferenceable(8) %0) #1 comdat align 2 {
  %2 = alloca ptr, align 8
  store ptr %0, ptr %2, align 8
  %3 = load ptr, ptr %2, align 8
  call void @_ZNK11ThreadsList8Iterator19assert_not_singularEv(ptr noundef nonnull align 8 dereferenceable(8) %3)
  call void @_ZNK11ThreadsList8Iterator22assert_dereferenceableEv(ptr noundef nonnull align 8 dereferenceable(8) %3)
  %4 = getelementptr inbounds %"class.ThreadsList::Iterator", ptr %3, i32 0, i32 0
  %5 = load ptr, ptr %4, align 8
  %6 = load i64, ptr @PrefetchScanIntervalInBytes, align 8
  call void @_ZN8Prefetch4readEPKvl(ptr noundef %5, i64 noundef %6)
  %7 = getelementptr inbounds %"class.ThreadsList::Iterator", ptr %3, i32 0, i32 0
  %8 = load ptr, ptr %7, align 8
  %9 = load ptr, ptr %8, align 8
  ret ptr %9
}

; Function Attrs: mustprogress nounwind uwtable
define linkonce_odr hidden noundef zeroext i1 @_ZNK11ThreadsList8IteratorneES0_(ptr noundef nonnull align 8 dereferenceable(8) %0, ptr %1) #1 comdat align 2 {
  %3 = alloca %"class.ThreadsList::Iterator", align 8
  %4 = alloca ptr, align 8
  %5 = alloca %"class.ThreadsList::Iterator", align 8
  %6 = getelementptr inbounds %"class.ThreadsList::Iterator", ptr %3, i32 0, i32 0
  store ptr %1, ptr %6, align 8
  store ptr %0, ptr %4, align 8
  %7 = load ptr, ptr %4, align 8
  call void @llvm.memcpy.p0.p0.i64(ptr align 8 %5, ptr align 8 %3, i64 8, i1 false)
  %8 = getelementptr inbounds %"class.ThreadsList::Iterator", ptr %5, i32 0, i32 0
  %9 = load ptr, ptr %8, align 8
  %10 = call noundef zeroext i1 @_ZNK11ThreadsList8IteratoreqES0_(ptr noundef nonnull align 8 dereferenceable(8) %7, ptr %9)
  %11 = xor i1 %10, true
  ret i1 %11
}

; Function Attrs: mustprogress nounwind uwtable
define linkonce_odr hidden ptr @_ZN17ThreadsListHandle3endEv(ptr noundef nonnull align 8 dereferenceable(56) %0) #1 comdat align 2 {
  %2 = alloca %"class.ThreadsList::Iterator", align 8
  %3 = alloca ptr, align 8
  store ptr %0, ptr %3, align 8
  %4 = load ptr, ptr %3, align 8
  %5 = call noundef ptr @_ZNK17ThreadsListHandle4listEv(ptr noundef nonnull align 8 dereferenceable(56) %4)
  %6 = call ptr @_ZN11ThreadsList3endEv(ptr noundef nonnull align 8 dereferenceable(32) %5)
  %7 = getelementptr inbounds %"class.ThreadsList::Iterator", ptr %2, i32 0, i32 0
  store ptr %6, ptr %7, align 8
  %8 = getelementptr inbounds %"class.ThreadsList::Iterator", ptr %2, i32 0, i32 0
  %9 = load ptr, ptr %8, align 8
  ret ptr %9
}

; Function Attrs: mustprogress nounwind uwtable
define linkonce_odr hidden ptr @_ZN17ThreadsListHandle5beginEv(ptr noundef nonnull align 8 dereferenceable(56) %0) #1 comdat align 2 {
  %2 = alloca %"class.ThreadsList::Iterator", align 8
  %3 = alloca ptr, align 8
  store ptr %0, ptr %3, align 8
  %4 = load ptr, ptr %3, align 8
  %5 = call noundef ptr @_ZNK17ThreadsListHandle4listEv(ptr noundef nonnull align 8 dereferenceable(56) %4)
  %6 = call ptr @_ZN11ThreadsList5beginEv(ptr noundef nonnull align 8 dereferenceable(32) %5)
  %7 = getelementptr inbounds %"class.ThreadsList::Iterator", ptr %2, i32 0, i32 0
  store ptr %6, ptr %7, align 8
  %8 = getelementptr inbounds %"class.ThreadsList::Iterator", ptr %2, i32 0, i32 0
  %9 = load ptr, ptr %8, align 8
  ret ptr %9
}

; Function Attrs: mustprogress nounwind uwtable
define linkonce_odr hidden noundef ptr @_ZN6Thread7currentEv() #1 comdat align 2 {
  %1 = alloca ptr, align 8
  %2 = call noundef ptr @_ZN6Thread15current_or_nullEv()
  store ptr %2, ptr %1, align 8
  %3 = load ptr, ptr %1, align 8
  ret ptr %3
}

; Function Attrs: mustprogress nounwind uwtable
define hidden void @_ZN10JavaThread16collect_countersEPli(ptr noundef %0, i32 noundef %1) #1 align 2 {
  %3 = alloca ptr, align 8
  %4 = alloca i32, align 4
  %5 = alloca i32, align 4
  %6 = alloca ptr, align 8
  %7 = alloca %class.ThreadsListHandle, align 8
  %8 = alloca %"class.ThreadsList::Iterator", align 8
  %9 = alloca %"class.ThreadsList::Iterator", align 8
  %10 = alloca %"class.ThreadsList::Iterator", align 8
  %11 = alloca ptr, align 8
  %12 = alloca i32, align 4
  store ptr %0, ptr %3, align 8
  store i32 %1, ptr %4, align 4
  store i32 0, ptr %5, align 4
  br label %13

13:                                               ; preds = %27, %2
  %14 = load i32, ptr %5, align 4
  %15 = load i32, ptr %4, align 4
  %16 = icmp slt i32 %14, %15
  br i1 %16, label %17, label %30

17:                                               ; preds = %13
  %18 = load ptr, ptr @_ZN10JavaThread26_jvmci_old_thread_countersE, align 8
  %19 = load i32, ptr %5, align 4
  %20 = sext i32 %19 to i64
  %21 = getelementptr inbounds i64, ptr %18, i64 %20
  %22 = load i64, ptr %21, align 8
  %23 = load ptr, ptr %3, align 8
  %24 = load i32, ptr %5, align 4
  %25 = sext i32 %24 to i64
  %26 = getelementptr inbounds i64, ptr %23, i64 %25
  store i64 %22, ptr %26, align 8
  br label %27

27:                                               ; preds = %17
  %28 = load i32, ptr %5, align 4
  %29 = add nsw i32 %28, 1
  store i32 %29, ptr %5, align 4
  br label %13, !llvm.loop !6

30:                                               ; preds = %13
  %31 = call noundef ptr @_ZN6Thread7currentEv()
  call void @_ZN17ThreadsListHandleC1EP6Thread(ptr noundef nonnull align 8 dereferenceable(56) %7, ptr noundef %31)
  store ptr %7, ptr %6, align 8
  %32 = load ptr, ptr %6, align 8
  %33 = call ptr @_ZN17ThreadsListHandle5beginEv(ptr noundef nonnull align 8 dereferenceable(56) %32)
  %34 = getelementptr inbounds %"class.ThreadsList::Iterator", ptr %8, i32 0, i32 0
  store ptr %33, ptr %34, align 8
  %35 = load ptr, ptr %6, align 8
  %36 = call ptr @_ZN17ThreadsListHandle3endEv(ptr noundef nonnull align 8 dereferenceable(56) %35)
  %37 = getelementptr inbounds %"class.ThreadsList::Iterator", ptr %9, i32 0, i32 0
  store ptr %36, ptr %37, align 8
  br label %38

38:                                               ; preds = %71, %30
  call void @llvm.memcpy.p0.p0.i64(ptr align 8 %10, ptr align 8 %9, i64 8, i1 false)
  %39 = getelementptr inbounds %"class.ThreadsList::Iterator", ptr %10, i32 0, i32 0
  %40 = load ptr, ptr %39, align 8
  %41 = call noundef zeroext i1 @_ZNK11ThreadsList8IteratorneES0_(ptr noundef nonnull align 8 dereferenceable(8) %8, ptr %40)
  br i1 %41, label %43, label %42

42:                                               ; preds = %38
  call void @_ZN17ThreadsListHandleD1Ev(ptr noundef nonnull align 8 dereferenceable(56) %7) #10
  br label %73

43:                                               ; preds = %38
  %44 = call noundef ptr @_ZNK11ThreadsList8IteratordeEv(ptr noundef nonnull align 8 dereferenceable(8) %8)
  store ptr %44, ptr %11, align 8
  %45 = load ptr, ptr %11, align 8
  %46 = call noundef zeroext i1 @_ZL22jvmci_counters_includeP10JavaThread(ptr noundef %45)
  br i1 %46, label %47, label %70

47:                                               ; preds = %43
  store i32 0, ptr %12, align 4
  br label %48

48:                                               ; preds = %66, %47
  %49 = load i32, ptr %12, align 4
  %50 = load i32, ptr %4, align 4
  %51 = icmp slt i32 %49, %50
  br i1 %51, label %52, label %69

52:                                               ; preds = %48
  %53 = load ptr, ptr %11, align 8
  %54 = getelementptr inbounds %class.JavaThread, ptr %53, i32 0, i32 45
  %55 = load ptr, ptr %54, align 8
  %56 = load i32, ptr %12, align 4
  %57 = sext i32 %56 to i64
  %58 = getelementptr inbounds i64, ptr %55, i64 %57
  %59 = load i64, ptr %58, align 8
  %60 = load ptr, ptr %3, align 8
  %61 = load i32, ptr %12, align 4
  %62 = sext i32 %61 to i64
  %63 = getelementptr inbounds i64, ptr %60, i64 %62
  %64 = load i64, ptr %63, align 8
  %65 = add nsw i64 %64, %59
  store i64 %65, ptr %63, align 8
  br label %66

66:                                               ; preds = %52
  %67 = load i32, ptr %12, align 4
  %68 = add nsw i32 %67, 1
  store i32 %68, ptr %12, align 4
  br label %48, !llvm.loop !8

69:                                               ; preds = %48
  br label %70

70:                                               ; preds = %69, %43
  br label %71

71:                                               ; preds = %70
  %72 = call noundef nonnull align 8 dereferenceable(8) ptr @_ZN11ThreadsList8IteratorppEv(ptr noundef nonnull align 8 dereferenceable(8) %8)
  br label %38

73:                                               ; preds = %42
  ret void
}