; Function Attrs: mustprogress nounwind uwtable
define hidden void @_ZN10JavaThread16collect_countersEPli(ptr nocapture noundef %0, i32 noundef %1) local_unnamed_addr #0 align 2 {
  %3 = alloca %class.ThreadsListHandle, align 8
  %4 = icmp sgt i32 %1, 0
  br i1 %4, label %.lr.ph.preheader, label %._crit_edge

.lr.ph.preheader:                                 ; preds = %2
  %wide.trip.count = zext nneg i32 %1 to i64
  br label %.lr.ph

.lr.ph:                                           ; preds = %.lr.ph.preheader, %.lr.ph
  %indvars.iv = phi i64 [ 0, %.lr.ph.preheader ], [ %indvars.iv.next, %.lr.ph ]
  %5 = load ptr, ptr @_ZN10JavaThread26_jvmci_old_thread_countersE, align 8
  %6 = getelementptr inbounds i64, ptr %5, i64 %indvars.iv
  %7 = load i64, ptr %6, align 8
  %8 = getelementptr inbounds i64, ptr %0, i64 %indvars.iv
  store i64 %7, ptr %8, align 8
  %indvars.iv.next = add nuw nsw i64 %indvars.iv, 1
  %exitcond.not = icmp eq i64 %indvars.iv.next, %wide.trip.count
  br i1 %exitcond.not, label %._crit_edge, label %.lr.ph, !llvm.loop !6

._crit_edge:                                      ; preds = %.lr.ph, %2
  %9 = tail call align 8 ptr @llvm.threadlocal.address.p0(ptr align 8 @_ZN6Thread12_thr_currentE)
  %10 = load ptr, ptr %9, align 8
  call void @_ZN17ThreadsListHandleC1EP6Thread(ptr noundef nonnull align 8 dereferenceable(56) %3, ptr noundef %10) #21
  %11 = getelementptr inbounds i8, ptr %3, i64 16
  %12 = load ptr, ptr %11, align 8
  %13 = getelementptr inbounds i8, ptr %12, i64 16
  %14 = load ptr, ptr %13, align 8
  %15 = getelementptr inbounds i8, ptr %12, i64 4
  %16 = load i32, ptr %15, align 4
  %17 = zext i32 %16 to i64
  %18 = getelementptr inbounds ptr, ptr %14, i64 %17
  %.not24 = icmp eq i32 %16, 0
  br i1 %.not24, label %._crit_edge28, label %.lr.ph27

.lr.ph27:                                         ; preds = %._crit_edge
  br i1 %4, label %.lr.ph27.split.us.preheader, label %.lr.ph27.split

.lr.ph27.split.us.preheader:                      ; preds = %.lr.ph27
  %wide.trip.count34 = zext nneg i32 %1 to i64
  br label %.lr.ph27.split.us

.lr.ph27.split.us:                                ; preds = %.lr.ph27.split.us.preheader, %_ZL22jvmci_counters_includeP10JavaThread.exit..loopexit_crit_edge.us
  %.sroa.0.025.us = phi ptr [ %34, %_ZL22jvmci_counters_includeP10JavaThread.exit..loopexit_crit_edge.us ], [ %14, %.lr.ph27.split.us.preheader ]
  %19 = load i64, ptr @PrefetchScanIntervalInBytes, align 8
  call void asm sideeffect "prefetcht0 ($0,$1,1)", "r,r,~{dirflag},~{fpsr},~{flags}"(ptr %.sroa.0.025.us, i64 %19) #21, !srcloc !8
  %20 = load ptr, ptr %.sroa.0.025.us, align 8
  %21 = load i8, ptr @JVMCICountersExcludeCompiler, align 1
  %22 = trunc i8 %21 to i1
  br i1 %22, label %23, label %_ZL22jvmci_counters_includeP10JavaThread.exit.preheader.us

23:                                               ; preds = %.lr.ph27.split.us
  %24 = load ptr, ptr %20, align 8
  %25 = getelementptr inbounds i8, ptr %24, i64 64
  %26 = load ptr, ptr %25, align 8
  %27 = call noundef zeroext i1 %26(ptr noundef nonnull align 8 dereferenceable(888) %20) #21
  br i1 %27, label %_ZL22jvmci_counters_includeP10JavaThread.exit..loopexit_crit_edge.us, label %_ZL22jvmci_counters_includeP10JavaThread.exit.preheader.us

_ZL22jvmci_counters_includeP10JavaThread.exit.us: ; preds = %_ZL22jvmci_counters_includeP10JavaThread.exit.preheader.us, %_ZL22jvmci_counters_includeP10JavaThread.exit.us
  %indvars.iv31 = phi i64 [ 0, %_ZL22jvmci_counters_includeP10JavaThread.exit.preheader.us ], [ %indvars.iv.next32, %_ZL22jvmci_counters_includeP10JavaThread.exit.us ]
  %28 = load ptr, ptr %35, align 8
  %29 = getelementptr inbounds i64, ptr %28, i64 %indvars.iv31
  %30 = load i64, ptr %29, align 8
  %31 = getelementptr inbounds i64, ptr %0, i64 %indvars.iv31
  %32 = load i64, ptr %31, align 8
  %33 = add nsw i64 %32, %30
  store i64 %33, ptr %31, align 8
  %indvars.iv.next32 = add nuw nsw i64 %indvars.iv31, 1
  %exitcond35.not = icmp eq i64 %indvars.iv.next32, %wide.trip.count34
  br i1 %exitcond35.not, label %_ZL22jvmci_counters_includeP10JavaThread.exit..loopexit_crit_edge.us, label %_ZL22jvmci_counters_includeP10JavaThread.exit.us, !llvm.loop !9

_ZL22jvmci_counters_includeP10JavaThread.exit..loopexit_crit_edge.us: ; preds = %_ZL22jvmci_counters_includeP10JavaThread.exit.us, %23
  %34 = getelementptr inbounds i8, ptr %.sroa.0.025.us, i64 8
  %.not.us = icmp eq ptr %34, %18
  br i1 %.not.us, label %._crit_edge28, label %.lr.ph27.split.us

_ZL22jvmci_counters_includeP10JavaThread.exit.preheader.us: ; preds = %23, %.lr.ph27.split.us
  %35 = getelementptr inbounds i8, ptr %20, i64 1184
  br label %_ZL22jvmci_counters_includeP10JavaThread.exit.us

._crit_edge28:                                    ; preds = %_ZL22jvmci_counters_includeP10JavaThread.exit.preheader, %_ZL22jvmci_counters_includeP10JavaThread.exit..loopexit_crit_edge.us, %._crit_edge
  call void @_ZN17ThreadsListHandleD1Ev(ptr noundef nonnull align 8 dereferenceable(56) %3) #21
  ret void

.lr.ph27.split:                                   ; preds = %.lr.ph27, %_ZL22jvmci_counters_includeP10JavaThread.exit.preheader
  %.sroa.0.025 = phi ptr [ %45, %_ZL22jvmci_counters_includeP10JavaThread.exit.preheader ], [ %14, %.lr.ph27 ]
  %36 = load i64, ptr @PrefetchScanIntervalInBytes, align 8
  call void asm sideeffect "prefetcht0 ($0,$1,1)", "r,r,~{dirflag},~{fpsr},~{flags}"(ptr %.sroa.0.025, i64 %36) #21, !srcloc !8
  %37 = load i8, ptr @JVMCICountersExcludeCompiler, align 1
  %38 = trunc i8 %37 to i1
  br i1 %38, label %39, label %_ZL22jvmci_counters_includeP10JavaThread.exit.preheader

39:                                               ; preds = %.lr.ph27.split
  %40 = load ptr, ptr %.sroa.0.025, align 8
  %41 = load ptr, ptr %40, align 8
  %42 = getelementptr inbounds i8, ptr %41, i64 64
  %43 = load ptr, ptr %42, align 8
  %44 = call noundef zeroext i1 %43(ptr noundef nonnull align 8 dereferenceable(888) %40) #21
  br label %_ZL22jvmci_counters_includeP10JavaThread.exit.preheader

_ZL22jvmci_counters_includeP10JavaThread.exit.preheader: ; preds = %39, %.lr.ph27.split
  %45 = getelementptr inbounds i8, ptr %.sroa.0.025, i64 8
  %.not = icmp eq ptr %45, %18
  br i1 %.not, label %._crit_edge28, label %.lr.ph27.split
}